(lp0
ccopy_reg
_reconstructor
p1
(citems
Treasure
p2
c__builtin__
object
p3
Ntp4
Rp5
(dp6
S'type'
p7
S'hat'
p8
sS'description'
p9
S'It looks silly.'
p10
sS'title'
p11
S'beanie'
p12
sbag1
(g2
g3
Ntp13
Rp14
(dp15
g7
S'shirt'
p16
sg9
S'Are you brave enough to wear it?'
p17
sg11
S'tank top'
p18
sba.